(inetwork
Network
p1
(dp2
S'symInputNode'
p3
(inode
Node
p4
(dp5
S'activationValue'
p6
I0
sS'name'
p7
S'sym'
p8
sS'error'
p9
NsS'parents'
p10
(lp11
sS'correctValue'
p12
NsS'output'
p13
I1
sS'children'
p14
(lp15
(inode
Node
p16
(dp17
g6
I0
sg7
S'hidden0'
p18
sg9
Nsg10
(lp19
(lp20
g4
aF-0.96477423110437366
aa(lp21
(inode
Node
p22
(dp23
g6
I0
sg7
S'ec'
p24
sg9
Nsg10
(lp25
sg12
Nsg13
I1
sg14
(lp26
g16
a(inode
Node
p27
(dp28
g6
I0
sg7
S'hidden1'
p29
sg9
Nsg10
(lp30
(lp31
g4
aF-1.0877851694137299
aa(lp32
g22
aF-2.5268045737011442
aa(lp33
(inode
Node
p34
(dp35
g6
I0
sg7
S'bias1'
p36
sg9
Nsg10
(lp37
sg12
Nsg13
I1
sg14
(lp38
g27
asbaF0.53052342892676585
aasg12
Nsg13
I1
sg14
(lp39
(inode
Node
p40
(dp41
g6
I0
sg7
S'bolt'
p42
sg9
Nsg10
(lp43
(lp44
g16
aF-3.7440318390649718
aa(lp45
g27
aF-2.6328731020377019
aa(lp46
(inode
Node
p47
(dp48
g6
I0
sg7
S'hidden2'
p49
sg9
Nsg10
(lp50
(lp51
g4
aF1.8699311129886194
aa(lp52
g22
aF-3.5543713797738548
aa(lp53
(inode
Node
p54
(dp55
g6
I0
sg7
S'bias2'
p56
sg9
Nsg10
(lp57
sg12
Nsg13
I1
sg14
(lp58
g47
asbaF-0.032435301729550184
aasg12
Nsg13
I1
sg14
(lp59
g40
a(inode
Node
p60
(dp61
g6
I0
sg7
S'nut'
p62
sg9
Nsg10
(lp63
(lp64
g16
aF0.74008281392440045
aa(lp65
g27
aF-0.1668580109292693
aa(lp66
g47
aF3.1238605210869959
aa(lp67
(inode
Node
p68
(dp69
g6
I0
sg7
S'hidden3'
p70
sg9
Nsg10
(lp71
(lp72
g4
aF-2.3943866307340844
aa(lp73
g22
aF0.78615454759590953
aa(lp74
(inode
Node
p75
(dp76
g6
I0
sg7
S'bias3'
p77
sg9
Nsg10
(lp78
sg12
Nsg13
I1
sg14
(lp79
g68
asbaF0.4272118130530479
aasg12
Nsg13
I1
sg14
(lp80
g40
ag60
a(inode
Node
p81
(dp82
g6
I0
sg7
S'ring'
p83
sg9
Nsg10
(lp84
(lp85
g16
aF2.5104170987629337
aa(lp86
g27
aF1.6885625471759464
aa(lp87
g47
aF0.51946458589680478
aa(lp88
g68
aF1.3589484251016881
aa(lp89
(inode
Node
p90
(dp91
g6
I0
sg7
S'hidden4'
p92
sg9
Nsg10
(lp93
(lp94
g4
aF2.6309655969992001
aa(lp95
g22
aF1.6186776850513171
aa(lp96
(inode
Node
p97
(dp98
g6
I0
sg7
S'bias4'
p99
sg9
Nsg10
(lp100
sg12
Nsg13
I1
sg14
(lp101
g90
asbaF-1.0389500676443855
aasg12
Nsg13
I1
sg14
(lp102
g40
ag60
ag81
a(inode
Node
p103
(dp104
g6
I0
sg7
S'scrap'
p105
sg9
Nsg10
(lp106
(lp107
g16
aF-0.22560264147474604
aa(lp108
g27
aF-1.2154550841772789
aa(lp109
g47
aF-1.454718440199023
aa(lp110
g68
aF0.24427422687075404
aa(lp111
g90
aF-0.84349282876437925
aa(lp112
(inode
Node
p113
(dp114
g6
I0
sg7
S'biasOutput'
p115
sg9
Nsg10
(lp116
sg12
Nsg13
I1
sg14
(lp117
g40
ag60
ag81
ag103
asbaF0.47958554063844028
aasg12
Nsg13
I1
sg14
(lp118
sbasbaF-3.5038560354751613
aa(lp119
g113
aF-1.6167858302711993
aasg12
Nsg13
I1
sg14
(lp120
sbag103
asbaF-2.3682499512876349
aa(lp121
g90
aF0.40316719000903978
aa(lp122
g113
aF-1.9861042833034646
aasg12
Nsg13
I1
sg14
(lp123
sbag81
ag103
asbaF-2.0645539834733877
aa(lp124
g68
aF0.40932512458566761
aa(lp125
g90
aF1.6530180682067253
aa(lp126
g113
aF0.16905294635307938
aasg12
Nsg13
I1
sg14
(lp127
sbag60
ag81
ag103
asbag47
ag68
ag90
asbaF-3.5844275097911669
aa(lp128
(inode
Node
p129
(dp130
g6
I0
sg7
S'bias0'
p131
sg9
Nsg10
(lp132
sg12
Nsg13
I1
sg14
(lp133
g16
asbaF1.737196327313538
aasg12
Nsg13
I1
sg14
(lp134
g40
ag60
ag81
ag103
asbag27
ag47
ag68
ag90
asbsS'ecInputNode'
p135
g22
sS'hiddenNodes'
p136
(lp137
g16
ag27
ag47
ag68
ag90
asS'boltNode'
p138
g40
sS'results'
p139
(lp140
sS'scrapNode'
p141
g103
sS'profit'
p142
I0
sS'ringNode'
p143
g81
sS'numErrors'
p144
I0
sS'outputNodes'
p145
(lp146
g40
ag60
ag81
ag103
asS'nutNode'
p147
g60
sb.