(inetwork
Network
p1
(dp2
S'symInputNode'
p3
(inode
Node
p4
(dp5
S'activationValue'
p6
I0
sS'name'
p7
S'sym'
p8
sS'error'
p9
NsS'parents'
p10
(lp11
sS'correctValue'
p12
NsS'output'
p13
I1
sS'children'
p14
(lp15
(inode
Node
p16
(dp17
g6
I0
sg7
S'hidden0'
p18
sg9
Nsg10
(lp19
(lp20
g4
aF-0.15337735250848999
aa(lp21
(inode
Node
p22
(dp23
g6
I0
sg7
S'ec'
p24
sg9
Nsg10
(lp25
sg12
Nsg13
I1
sg14
(lp26
g16
a(inode
Node
p27
(dp28
g6
I0
sg7
S'hidden1'
p29
sg9
Nsg10
(lp30
(lp31
g4
aF-0.087638485973584063
aa(lp32
g22
aF-1.1155370854972326
aa(lp33
(inode
Node
p34
(dp35
g6
I0
sg7
S'bias1'
p36
sg9
Nsg10
(lp37
sg12
Nsg13
I1
sg14
(lp38
g27
asbaF-0.96729740919817053
aasg12
Nsg13
I1
sg14
(lp39
(inode
Node
p40
(dp41
g6
I0
sg7
S'bolt'
p42
sg9
Nsg10
(lp43
(lp44
g16
aF-1.2139369640022051
aa(lp45
g27
aF-1.1508316621163746
aa(lp46
(inode
Node
p47
(dp48
g6
I0
sg7
S'hidden2'
p49
sg9
Nsg10
(lp50
(lp51
g4
aF0.037935639999410548
aa(lp52
g22
aF-1.0953673567417019
aa(lp53
(inode
Node
p54
(dp55
g6
I0
sg7
S'bias2'
p56
sg9
Nsg10
(lp57
sg12
Nsg13
I1
sg14
(lp58
g47
asbaF-0.91110619216189492
aasg12
Nsg13
I1
sg14
(lp59
g40
a(inode
Node
p60
(dp61
g6
I0
sg7
S'nut'
p62
sg9
Nsg10
(lp63
(lp64
g16
aF-0.66160826955073315
aa(lp65
g27
aF-0.78832721495803115
aa(lp66
g47
aF0.23376109881474391
aa(lp67
(inode
Node
p68
(dp69
g6
I0
sg7
S'hidden3'
p70
sg9
Nsg10
(lp71
(lp72
g4
aF-1.0043915463474244
aa(lp73
g22
aF-0.012920103773434907
aa(lp74
(inode
Node
p75
(dp76
g6
I0
sg7
S'bias3'
p77
sg9
Nsg10
(lp78
sg12
Nsg13
I1
sg14
(lp79
g68
asbaF-0.99149435424020071
aasg12
Nsg13
I1
sg14
(lp80
g40
ag60
a(inode
Node
p81
(dp82
g6
I0
sg7
S'ring'
p83
sg9
Nsg10
(lp84
(lp85
g16
aF0.40299345182012708
aa(lp86
g27
aF0.24608102665884299
aa(lp87
g47
aF0.26212688541519669
aa(lp88
g68
aF0.17682422305157047
aa(lp89
(inode
Node
p90
(dp91
g6
I0
sg7
S'hidden4'
p92
sg9
Nsg10
(lp93
(lp94
g4
aF0.13553340691671426
aa(lp95
g22
aF0.10482537998495141
aa(lp96
(inode
Node
p97
(dp98
g6
I0
sg7
S'bias4'
p99
sg9
Nsg10
(lp100
sg12
Nsg13
I1
sg14
(lp101
g90
asbaF-0.063428995894444395
aasg12
Nsg13
I1
sg14
(lp102
g40
ag60
ag81
a(inode
Node
p103
(dp104
g6
I0
sg7
S'scrap'
p105
sg9
Nsg10
(lp106
(lp107
g16
aF-0.11252033406166899
aa(lp108
g27
aF-1.0723992887103231
aa(lp109
g47
aF-1.0790668841960125
aa(lp110
g68
aF-0.018047181702752092
aa(lp111
g90
aF-1.0691104452036466
aa(lp112
(inode
Node
p113
(dp114
g6
I0
sg7
S'biasOutput'
p115
sg9
Nsg10
(lp116
sg12
Nsg13
I1
sg14
(lp117
g40
ag60
ag81
ag103
asbaF-0.11334655777889648
aasg12
Nsg13
I1
sg14
(lp118
sbasbaF-0.80159328962819876
aa(lp119
g113
aF-0.60921369472708442
aasg12
Nsg13
I1
sg14
(lp120
sbag103
asbaF-0.028993438768449814
aa(lp121
g90
aF0.1611372500254343
aa(lp122
g113
aF-0.71629306248886493
aasg12
Nsg13
I1
sg14
(lp123
sbag81
ag103
asbaF-0.16506152221449311
aa(lp124
g68
aF0.036421978228633634
aa(lp125
g90
aF0.10894611335663605
aa(lp126
g113
aF-0.78240088477349556
aasg12
Nsg13
I1
sg14
(lp127
sbag60
ag81
ag103
asbag47
ag68
ag90
asbaF-1.1796669457667808
aa(lp128
(inode
Node
p129
(dp130
g6
I0
sg7
S'bias0'
p131
sg9
Nsg10
(lp132
sg12
Nsg13
I1
sg14
(lp133
g16
asbaF-0.041182424979569567
aasg12
Nsg13
I1
sg14
(lp134
g40
ag60
ag81
ag103
asbag27
ag47
ag68
ag90
asbsS'ecInputNode'
p135
g22
sS'hiddenNodes'
p136
(lp137
g16
ag27
ag47
ag68
ag90
asS'boltNode'
p138
g40
sS'results'
p139
(lp140
sS'scrapNode'
p141
g103
sS'profit'
p142
I0
sS'ringNode'
p143
g81
sS'numErrors'
p144
I0
sS'outputNodes'
p145
(lp146
g40
ag60
ag81
ag103
asS'nutNode'
p147
g60
sb.