(inetwork
Network
p1
(dp2
S'symInputNode'
p3
(inode
Node
p4
(dp5
S'activationValue'
p6
I0
sS'name'
p7
S'sym'
p8
sS'error'
p9
NsS'parents'
p10
(lp11
sS'correctValue'
p12
NsS'output'
p13
I1
sS'children'
p14
(lp15
(inode
Node
p16
(dp17
g6
I0
sg7
S'hidden0'
p18
sg9
Nsg10
(lp19
(lp20
g4
aF-22.692756999833858
aa(lp21
(inode
Node
p22
(dp23
g6
I0
sg7
S'ec'
p24
sg9
Nsg10
(lp25
sg12
Nsg13
I1
sg14
(lp26
g16
a(inode
Node
p27
(dp28
g6
I0
sg7
S'hidden1'
p29
sg9
Nsg10
(lp30
(lp31
g4
aF-0.49596649609549726
aa(lp32
g22
aF-8.3361002311093024
aa(lp33
(inode
Node
p34
(dp35
g6
I0
sg7
S'bias1'
p36
sg9
Nsg10
(lp37
sg12
Nsg13
I1
sg14
(lp38
g27
asbaF7.2949946898907125
aasg12
Nsg13
I1
sg14
(lp39
(inode
Node
p40
(dp41
g6
I0
sg7
S'bolt'
p42
sg9
Nsg10
(lp43
(lp44
g16
aF-3.8273501504312395
aa(lp45
g27
aF-6.0665907341346079
aa(lp46
(inode
Node
p47
(dp48
g6
I0
sg7
S'hidden2'
p49
sg9
Nsg10
(lp50
(lp51
g4
aF-4.9862205348837607
aa(lp52
g22
aF-1.929482967467486
aa(lp53
(inode
Node
p54
(dp55
g6
I0
sg7
S'bias2'
p56
sg9
Nsg10
(lp57
sg12
Nsg13
I1
sg14
(lp58
g47
asbaF0.24603706383186422
aasg12
Nsg13
I1
sg14
(lp59
g40
a(inode
Node
p60
(dp61
g6
I0
sg7
S'nut'
p62
sg9
Nsg10
(lp63
(lp64
g16
aF-4.7126791440812852
aa(lp65
g27
aF-0.81124742732792154
aa(lp66
g47
aF-2.6249829560593358
aa(lp67
(inode
Node
p68
(dp69
g6
I0
sg7
S'hidden3'
p70
sg9
Nsg10
(lp71
(lp72
g4
aF11.833239494311789
aa(lp73
g22
aF-15.146689503232082
aa(lp74
(inode
Node
p75
(dp76
g6
I0
sg7
S'bias3'
p77
sg9
Nsg10
(lp78
sg12
Nsg13
I1
sg14
(lp79
g68
asbaF-3.0228071928561286
aasg12
Nsg13
I1
sg14
(lp80
g40
ag60
a(inode
Node
p81
(dp82
g6
I0
sg7
S'ring'
p83
sg9
Nsg10
(lp84
(lp85
g16
aF17.876742286707653
aa(lp86
g27
aF0.91258915268516805
aa(lp87
g47
aF3.6206974741229678
aa(lp88
g68
aF-11.338886277523368
aa(lp89
(inode
Node
p90
(dp91
g6
I0
sg7
S'hidden4'
p92
sg9
Nsg10
(lp93
(lp94
g4
aF-2.806409543406081
aa(lp95
g22
aF17.836028852954549
aa(lp96
(inode
Node
p97
(dp98
g6
I0
sg7
S'bias4'
p99
sg9
Nsg10
(lp100
sg12
Nsg13
I1
sg14
(lp101
g90
asbaF-13.729176195125444
aasg12
Nsg13
I1
sg14
(lp102
g40
ag60
ag81
a(inode
Node
p103
(dp104
g6
I0
sg7
S'scrap'
p105
sg9
Nsg10
(lp106
(lp107
g16
aF-13.796345858627545
aa(lp108
g27
aF4.5242697628885873
aa(lp109
g47
aF0.91970030100302935
aa(lp110
g68
aF-9.4276824819080822
aa(lp111
g90
aF-13.274316026426174
aa(lp112
(inode
Node
p113
(dp114
g6
I0
sg7
S'biasOutput'
p115
sg9
Nsg10
(lp116
sg12
Nsg13
I1
sg14
(lp117
g40
ag60
ag81
ag103
asbaF0.95913925603014105
aasg12
Nsg13
I1
sg14
(lp118
sbasbaF-3.3830157557326204
aa(lp119
g113
aF-7.1238988453547831
aasg12
Nsg13
I1
sg14
(lp120
sbag103
asbaF20.30564697939209
aa(lp121
g90
aF-4.8966390663839441
aa(lp122
g113
aF-2.2541548490054129
aasg12
Nsg13
I1
sg14
(lp123
sbag81
ag103
asbaF-1.3521083068345232
aa(lp124
g68
aF-6.1619099713569385
aa(lp125
g90
aF12.069880557222183
aa(lp126
g113
aF0.53576470123705677
aasg12
Nsg13
I1
sg14
(lp127
sbag60
ag81
ag103
asbag47
ag68
ag90
asbaF-9.6355892437137722
aa(lp128
(inode
Node
p129
(dp130
g6
I0
sg7
S'bias0'
p131
sg9
Nsg10
(lp132
sg12
Nsg13
I1
sg14
(lp133
g16
asbaF7.6938042142706875
aasg12
Nsg13
I1
sg14
(lp134
g40
ag60
ag81
ag103
asbag27
ag47
ag68
ag90
asbsS'ecInputNode'
p135
g22
sS'hiddenNodes'
p136
(lp137
g16
ag27
ag47
ag68
ag90
asS'boltNode'
p138
g40
sS'results'
p139
(lp140
sS'scrapNode'
p141
g103
sS'profit'
p142
I0
sS'ringNode'
p143
g81
sS'numErrors'
p144
I0
sS'outputNodes'
p145
(lp146
g40
ag60
ag81
ag103
asS'nutNode'
p147
g60
sb.