(inetwork
Network
p1
(dp2
S'symInputNode'
p3
(inode
Node
p4
(dp5
S'activationValue'
p6
I0
sS'name'
p7
S'sym'
p8
sS'error'
p9
NsS'parents'
p10
(lp11
sS'correctValue'
p12
NsS'output'
p13
I1
sS'children'
p14
(lp15
(inode
Node
p16
(dp17
g6
I0
sg7
S'hidden0'
p18
sg9
Nsg10
(lp19
(lp20
g4
aF1.7399985703494094
aa(lp21
(inode
Node
p22
(dp23
g6
I0
sg7
S'ec'
p24
sg9
Nsg10
(lp25
sg12
Nsg13
I1
sg14
(lp26
g16
a(inode
Node
p27
(dp28
g6
I0
sg7
S'hidden1'
p29
sg9
Nsg10
(lp30
(lp31
g4
aF-4.1700021686705853
aa(lp32
g22
aF-7.3787888251632898
aa(lp33
(inode
Node
p34
(dp35
g6
I0
sg7
S'bias1'
p36
sg9
Nsg10
(lp37
sg12
Nsg13
I1
sg14
(lp38
g27
asbaF3.3041152839435943
aasg12
Nsg13
I1
sg14
(lp39
(inode
Node
p40
(dp41
g6
I0
sg7
S'bolt'
p42
sg9
Nsg10
(lp43
(lp44
g16
aF-10.0214169179434
aa(lp45
g27
aF-3.810821578684437
aa(lp46
(inode
Node
p47
(dp48
g6
I0
sg7
S'hidden2'
p49
sg9
Nsg10
(lp50
(lp51
g4
aF5.4823545556585609
aa(lp52
g22
aF-10.207781396066636
aa(lp53
(inode
Node
p54
(dp55
g6
I0
sg7
S'bias2'
p56
sg9
Nsg10
(lp57
sg12
Nsg13
I1
sg14
(lp58
g47
asbaF-0.29590269940722358
aasg12
Nsg13
I1
sg14
(lp59
g40
a(inode
Node
p60
(dp61
g6
I0
sg7
S'nut'
p62
sg9
Nsg10
(lp63
(lp64
g16
aF0.6374635458504172
aa(lp65
g27
aF-0.53137403559712504
aa(lp66
g47
aF8.7254846356520908
aa(lp67
(inode
Node
p68
(dp69
g6
I0
sg7
S'hidden3'
p70
sg9
Nsg10
(lp71
(lp72
g4
aF-8.8795018352719168
aa(lp73
g22
aF3.8014646980933224
aa(lp74
(inode
Node
p75
(dp76
g6
I0
sg7
S'bias3'
p77
sg9
Nsg10
(lp78
sg12
Nsg13
I1
sg14
(lp79
g68
asbaF2.3624897354472596
aasg12
Nsg13
I1
sg14
(lp80
g40
ag60
a(inode
Node
p81
(dp82
g6
I0
sg7
S'ring'
p83
sg9
Nsg10
(lp84
(lp85
g16
aF3.4443522261435038
aa(lp86
g27
aF5.7221326851843388
aa(lp87
g47
aF-2.903510924992998
aa(lp88
g68
aF4.9572090699237989
aa(lp89
(inode
Node
p90
(dp91
g6
I0
sg7
S'hidden4'
p92
sg9
Nsg10
(lp93
(lp94
g4
aF9.1852996224025283
aa(lp95
g22
aF3.913834393729382
aa(lp96
(inode
Node
p97
(dp98
g6
I0
sg7
S'bias4'
p99
sg9
Nsg10
(lp100
sg12
Nsg13
I1
sg14
(lp101
g90
asbaF-3.0617939509136951
aasg12
Nsg13
I1
sg14
(lp102
g40
ag60
ag81
a(inode
Node
p103
(dp104
g6
I0
sg7
S'scrap'
p105
sg9
Nsg10
(lp106
(lp107
g16
aF9.2425815763880905
aa(lp108
g27
aF-5.787797095652035
aa(lp109
g47
aF-7.4834759292198063
aa(lp110
g68
aF-2.5240008083150833
aa(lp111
g90
aF-0.69052264834152399
aa(lp112
(inode
Node
p113
(dp114
g6
I0
sg7
S'biasOutput'
p115
sg9
Nsg10
(lp116
sg12
Nsg13
I1
sg14
(lp117
g40
ag60
ag81
ag103
asbaF-1.7721699301208036
aasg12
Nsg13
I1
sg14
(lp118
sbasbaF-10.798217299463341
aa(lp119
g113
aF-3.0847938124851804
aasg12
Nsg13
I1
sg14
(lp120
sbag103
asbaF-8.0779152424995164
aa(lp121
g90
aF3.1442782782557792
aa(lp122
g113
aF-3.0820461010753828
aasg12
Nsg13
I1
sg14
(lp123
sbag81
ag103
asbaF-3.1053227010170192
aa(lp124
g68
aF2.8600066695757667
aa(lp125
g90
aF2.4445429769382345
aa(lp126
g113
aF0.4394050902259326
aasg12
Nsg13
I1
sg14
(lp127
sbag60
ag81
ag103
asbag47
ag68
ag90
asbaF-11.884272764435574
aa(lp128
(inode
Node
p129
(dp130
g6
I0
sg7
S'bias0'
p131
sg9
Nsg10
(lp132
sg12
Nsg13
I1
sg14
(lp133
g16
asbaF8.701116857995812
aasg12
Nsg13
I1
sg14
(lp134
g40
ag60
ag81
ag103
asbag27
ag47
ag68
ag90
asbsS'ecInputNode'
p135
g22
sS'hiddenNodes'
p136
(lp137
g16
ag27
ag47
ag68
ag90
asS'boltNode'
p138
g40
sS'results'
p139
(lp140
sS'scrapNode'
p141
g103
sS'profit'
p142
I0
sS'ringNode'
p143
g81
sS'numErrors'
p144
I0
sS'outputNodes'
p145
(lp146
g40
ag60
ag81
ag103
asS'nutNode'
p147
g60
sb.